; Function Attrs: mustprogress uwtable
define internal noundef ptr @_ZL14rsa_alloc_wrapv() #0 {
  %1 = tail call noalias dereferenceable_or_null(336) ptr @calloc(i64 noundef 1, i64 noundef 336) #6
  %.not = icmp eq ptr %1, null
  br i1 %.not, label %3, label %2

2:                                                ; preds = %0
  tail call void @mbedtls_rsa_init(ptr noundef nonnull %1)
  br label %3

3:                                                ; preds = %2, %0
  ret ptr %1
}